target datalayout = "e-m:e-p270:32:32-p271:32:32-p272:64:64-i64:64-i128:128-f80:128-n8:16:32:64-S128"
target triple = "x86_64-pc-linux-gnu"

%struct.Abc_Cex_t_ = type { i32, i32, i32, i32, i32, [0 x i32] }

; Function Attrs: inlinehint nounwind uwtable
define internal i32 @Abc_BitWordNum(i32 noundef %0) #3 {
  %2 = alloca i32, align 4
  store i32 %0, ptr %2, align 4, !tbaa !15
  %3 = load i32, ptr %2, align 4, !tbaa !15
  %4 = ashr i32 %3, 5
  %5 = load i32, ptr %2, align 4, !tbaa !15
  %6 = and i32 %5, 31
  %7 = icmp sgt i32 %6, 0
  %8 = zext i1 %7 to i32
  %9 = add nsw i32 %4, %8
  ret i32 %9
}

; Function Attrs: nounwind uwtable
define ptr @Bmc_CexCareTotal(ptr noundef %0, i32 noundef %1) #0 {
  %3 = alloca ptr, align 8
  %4 = alloca i32, align 4
  %5 = alloca i32, align 4
  %6 = alloca i32, align 4
  %7 = alloca i32, align 4
  %8 = alloca ptr, align 8
  store ptr %0, ptr %3, align 8, !tbaa !70
  store i32 %1, ptr %4, align 4, !tbaa !15
  call void @llvm.lifetime.start.p0(i64 4, ptr %5) #8
  call void @llvm.lifetime.start.p0(i64 4, ptr %6) #8
  call void @llvm.lifetime.start.p0(i64 4, ptr %7) #8
  %9 = load ptr, ptr %3, align 8, !tbaa !70
  %10 = getelementptr inbounds ptr, ptr %9, i64 0
  %11 = load ptr, ptr %10, align 8, !tbaa !8
  %12 = getelementptr inbounds nuw %struct.Abc_Cex_t_, ptr %11, i32 0, i32 4
  %13 = load i32, ptr %12, align 4, !tbaa !72
  %14 = call i32 @Abc_BitWordNum(i32 noundef %13)
  store i32 %14, ptr %7, align 4, !tbaa !15
  call void @llvm.lifetime.start.p0(i64 8, ptr %8) #8
  %15 = load ptr, ptr %3, align 8, !tbaa !70
  %16 = getelementptr inbounds ptr, ptr %15, i64 0
  %17 = load ptr, ptr %16, align 8, !tbaa !8
  %18 = getelementptr inbounds nuw %struct.Abc_Cex_t_, ptr %17, i32 0, i32 2
  %19 = load i32, ptr %18, align 4, !tbaa !10
  %20 = load ptr, ptr %3, align 8, !tbaa !70
  %21 = getelementptr inbounds ptr, ptr %20, i64 0
  %22 = load ptr, ptr %21, align 8, !tbaa !8
  %23 = getelementptr inbounds nuw %struct.Abc_Cex_t_, ptr %22, i32 0, i32 3
  %24 = load i32, ptr %23, align 4, !tbaa !20
  %25 = load ptr, ptr %3, align 8, !tbaa !70
  %26 = getelementptr inbounds ptr, ptr %25, i64 0
  %27 = load ptr, ptr %26, align 8, !tbaa !8
  %28 = getelementptr inbounds nuw %struct.Abc_Cex_t_, ptr %27, i32 0, i32 1
  %29 = load i32, ptr %28, align 4, !tbaa !13
  %30 = add nsw i32 %29, 1
  %31 = call ptr @Abc_CexAlloc(i32 noundef %19, i32 noundef %24, i32 noundef %30)
  store ptr %31, ptr %8, align 8, !tbaa !8
  %32 = load ptr, ptr %3, align 8, !tbaa !70
  %33 = getelementptr inbounds ptr, ptr %32, i64 0
  %34 = load ptr, ptr %33, align 8, !tbaa !8
  %35 = getelementptr inbounds nuw %struct.Abc_Cex_t_, ptr %34, i32 0, i32 0
  %36 = load i32, ptr %35, align 4, !tbaa !14
  %37 = load ptr, ptr %8, align 8, !tbaa !8
  %38 = getelementptr inbounds nuw %struct.Abc_Cex_t_, ptr %37, i32 0, i32 0
  store i32 %36, ptr %38, align 4, !tbaa !14
  %39 = load ptr, ptr %3, align 8, !tbaa !70
  %40 = getelementptr inbounds ptr, ptr %39, i64 0
  %41 = load ptr, ptr %40, align 8, !tbaa !8
  %42 = getelementptr inbounds nuw %struct.Abc_Cex_t_, ptr %41, i32 0, i32 1
  %43 = load i32, ptr %42, align 4, !tbaa !13
  %44 = load ptr, ptr %8, align 8, !tbaa !8
  %45 = getelementptr inbounds nuw %struct.Abc_Cex_t_, ptr %44, i32 0, i32 1
  store i32 %43, ptr %45, align 4, !tbaa !13
  store i32 0, ptr %5, align 4, !tbaa !15
  br label %46

46:                                               ; preds = %90, %2
  %47 = load i32, ptr %5, align 4, !tbaa !15
  %48 = load i32, ptr %7, align 4, !tbaa !15
  %49 = icmp slt i32 %47, %48
  br i1 %49, label %50, label %93

50:                                               ; preds = %46
  %51 = load ptr, ptr %3, align 8, !tbaa !70
  %52 = getelementptr inbounds ptr, ptr %51, i64 0
  %53 = load ptr, ptr %52, align 8, !tbaa !8
  %54 = getelementptr inbounds nuw %struct.Abc_Cex_t_, ptr %53, i32 0, i32 5
  %55 = load i32, ptr %5, align 4, !tbaa !15
  %56 = sext i32 %55 to i64
  %57 = getelementptr inbounds [0 x i32], ptr %54, i64 0, i64 %56
  %58 = load i32, ptr %57, align 4, !tbaa !15
  %59 = load ptr, ptr %8, align 8, !tbaa !8
  %60 = getelementptr inbounds nuw %struct.Abc_Cex_t_, ptr %59, i32 0, i32 5
  %61 = load i32, ptr %5, align 4, !tbaa !15
  %62 = sext i32 %61 to i64
  %63 = getelementptr inbounds [0 x i32], ptr %60, i64 0, i64 %62
  store i32 %58, ptr %63, align 4, !tbaa !15
  store i32 1, ptr %6, align 4, !tbaa !15
  br label %64

64:                                               ; preds = %86, %50
  %65 = load i32, ptr %6, align 4, !tbaa !15
  %66 = load i32, ptr %4, align 4, !tbaa !15
  %67 = icmp slt i32 %65, %66
  br i1 %67, label %68, label %89

68:                                               ; preds = %64
  %69 = load ptr, ptr %3, align 8, !tbaa !70
  %70 = load i32, ptr %6, align 4, !tbaa !15
  %71 = sext i32 %70 to i64
  %72 = getelementptr inbounds ptr, ptr %69, i64 %71
  %73 = load ptr, ptr %72, align 8, !tbaa !8
  %74 = getelementptr inbounds nuw %struct.Abc_Cex_t_, ptr %73, i32 0, i32 5
  %75 = load i32, ptr %5, align 4, !tbaa !15
  %76 = sext i32 %75 to i64
  %77 = getelementptr inbounds [0 x i32], ptr %74, i64 0, i64 %76
  %78 = load i32, ptr %77, align 4, !tbaa !15
  %79 = load ptr, ptr %8, align 8, !tbaa !8
  %80 = getelementptr inbounds nuw %struct.Abc_Cex_t_, ptr %79, i32 0, i32 5
  %81 = load i32, ptr %5, align 4, !tbaa !15
  %82 = sext i32 %81 to i64
  %83 = getelementptr inbounds [0 x i32], ptr %80, i64 0, i64 %82
  %84 = load i32, ptr %83, align 4, !tbaa !15
  %85 = and i32 %84, %78
  store i32 %85, ptr %83, align 4, !tbaa !15
  br label %86

86:                                               ; preds = %68
  %87 = load i32, ptr %6, align 4, !tbaa !15
  %88 = add nsw i32 %87, 1
  store i32 %88, ptr %6, align 4, !tbaa !15
  br label %64, !llvm.loop !73

89:                                               ; preds = %64
  br label %90

90:                                               ; preds = %89
  %91 = load i32, ptr %5, align 4, !tbaa !15
  %92 = add nsw i32 %91, 1
  store i32 %92, ptr %5, align 4, !tbaa !15
  br label %46, !llvm.loop !74

93:                                               ; preds = %46
  %94 = load ptr, ptr %8, align 8, !tbaa !8
  call void @llvm.lifetime.end.p0(i64 8, ptr %8) #8
  call void @llvm.lifetime.end.p0(i64 4, ptr %7) #8
  call void @llvm.lifetime.end.p0(i64 4, ptr %6) #8
  call void @llvm.lifetime.end.p0(i64 4, ptr %5) #8
  ret ptr %94
}