; Function Attrs: nounwind uwtable
define noundef ptr @Bmc_CexCareTotal(ptr noundef readonly captures(none) %0, i32 noundef %1) local_unnamed_addr #0 {
  %3 = load ptr, ptr %0, align 8, !tbaa !65
  %4 = getelementptr inbounds nuw i8, ptr %3, i64 16
  %5 = load i32, ptr %4, align 4, !tbaa !66
  %6 = ashr i32 %5, 5
  %7 = and i32 %5, 31
  %8 = icmp ne i32 %7, 0
  %9 = zext i1 %8 to i32
  %10 = add nsw i32 %6, %9
  %11 = getelementptr inbounds nuw i8, ptr %3, i64 8
  %12 = load i32, ptr %11, align 4, !tbaa !3
  %13 = getelementptr inbounds nuw i8, ptr %3, i64 12
  %14 = load i32, ptr %13, align 4, !tbaa !42
  %15 = getelementptr inbounds nuw i8, ptr %3, i64 4
  %16 = load i32, ptr %15, align 4, !tbaa !30
  %17 = add nsw i32 %16, 1
  %18 = tail call ptr @Abc_CexAlloc(i32 noundef %12, i32 noundef %14, i32 noundef %17) #11
  %19 = load ptr, ptr %0, align 8, !tbaa !65
  %20 = load i32, ptr %19, align 4, !tbaa !31
  store i32 %20, ptr %18, align 4, !tbaa !31
  %21 = getelementptr inbounds nuw i8, ptr %19, i64 4
  %22 = load i32, ptr %21, align 4, !tbaa !30
  %23 = getelementptr inbounds nuw i8, ptr %18, i64 4
  store i32 %22, ptr %23, align 4, !tbaa !30
  %24 = icmp sgt i32 %10, 0
  br i1 %24, label %.lr.ph27, label %._crit_edge28

.lr.ph27:                                         ; preds = %2
  %25 = getelementptr inbounds nuw i8, ptr %19, i64 20
  %26 = getelementptr inbounds nuw i8, ptr %18, i64 20
  %27 = icmp sgt i32 %1, 1
  %wide.trip.count39 = zext nneg i32 %10 to i64
  br i1 %27, label %.lr.ph.us.preheader, label %.lr.ph27.split

.lr.ph.us.preheader:                              ; preds = %.lr.ph27
  %wide.trip.count34 = zext nneg i32 %1 to i64
  br label %.lr.ph.us

.lr.ph.us:                                        ; preds = %.lr.ph.us.preheader, %._crit_edge.us
  %indvars.iv36 = phi i64 [ 0, %.lr.ph.us.preheader ], [ %indvars.iv.next37, %._crit_edge.us ]
  %28 = getelementptr inbounds nuw [0 x i32], ptr %25, i64 0, i64 %indvars.iv36
  %29 = load i32, ptr %28, align 4, !tbaa !37
  %30 = getelementptr inbounds nuw [0 x i32], ptr %26, i64 0, i64 %indvars.iv36
  store i32 %29, ptr %30, align 4, !tbaa !37
  br label %31

31:                                               ; preds = %.lr.ph.us, %31
  %indvars.iv31 = phi i64 [ 1, %.lr.ph.us ], [ %indvars.iv.next32, %31 ]
  %32 = phi i32 [ %29, %.lr.ph.us ], [ %38, %31 ]
  %33 = getelementptr inbounds nuw ptr, ptr %0, i64 %indvars.iv31
  %34 = load ptr, ptr %33, align 8, !tbaa !65
  %35 = getelementptr inbounds nuw i8, ptr %34, i64 20
  %36 = getelementptr inbounds nuw [0 x i32], ptr %35, i64 0, i64 %indvars.iv36
  %37 = load i32, ptr %36, align 4, !tbaa !37
  %38 = and i32 %32, %37
  store i32 %38, ptr %30, align 4, !tbaa !37
  %indvars.iv.next32 = add nuw nsw i64 %indvars.iv31, 1
  %exitcond35.not = icmp eq i64 %indvars.iv.next32, %wide.trip.count34
  br i1 %exitcond35.not, label %._crit_edge.us, label %31, !llvm.loop !67

._crit_edge.us:                                   ; preds = %31
  %indvars.iv.next37 = add nuw nsw i64 %indvars.iv36, 1
  %exitcond40.not = icmp eq i64 %indvars.iv.next37, %wide.trip.count39
  br i1 %exitcond40.not, label %._crit_edge28, label %.lr.ph.us, !llvm.loop !68

.lr.ph27.split:                                   ; preds = %.lr.ph27, %.lr.ph27.split
  %indvars.iv = phi i64 [ %indvars.iv.next, %.lr.ph27.split ], [ 0, %.lr.ph27 ]
  %39 = getelementptr inbounds nuw [0 x i32], ptr %25, i64 0, i64 %indvars.iv
  %40 = load i32, ptr %39, align 4, !tbaa !37
  %41 = getelementptr inbounds nuw [0 x i32], ptr %26, i64 0, i64 %indvars.iv
  store i32 %40, ptr %41, align 4, !tbaa !37
  %indvars.iv.next = add nuw nsw i64 %indvars.iv, 1
  %exitcond.not = icmp eq i64 %indvars.iv.next, %wide.trip.count39
  br i1 %exitcond.not, label %._crit_edge28, label %.lr.ph27.split, !llvm.loop !68

._crit_edge28:                                    ; preds = %.lr.ph27.split, %._crit_edge.us, %2
  ret ptr %18
}